; Function Attrs: mustprogress nounwind uwtable
define void @_ZN12ByteViewTextD2Ev(ptr noundef nonnull align 8 dereferenceable(328) %0) unnamed_addr #6 align 2 personality ptr @__gxx_personality_v0 {
  store ptr getelementptr inbounds ({ [60 x ptr], [10 x ptr], [5 x ptr] }, ptr @_ZTV12ByteViewText, i64 0, i32 0, i64 2), ptr %0, align 8
  %2 = getelementptr inbounds i8, ptr %0, i64 16
  store ptr getelementptr inbounds ({ [60 x ptr], [10 x ptr], [5 x ptr] }, ptr @_ZTV12ByteViewText, i64 0, i32 1, i64 2), ptr %2, align 8
  %3 = getelementptr inbounds i8, ptr %0, i64 40
  store ptr getelementptr inbounds ({ [60 x ptr], [10 x ptr], [5 x ptr] }, ptr @_ZTV12ByteViewText, i64 0, i32 2, i64 2), ptr %3, align 8
  %4 = getelementptr inbounds i8, ptr %0, i64 120
  invoke void @_ZN5QMenu5clearEv(ptr noundef nonnull align 8 dereferenceable(40) %4)
          to label %5 unwind label %26

5:                                                ; preds = %1
  %6 = getelementptr inbounds i8, ptr %0, i64 48
  %7 = load ptr, ptr %6, align 8
  %8 = icmp eq ptr %7, null
  br i1 %8, label %10, label %9

9:                                                ; preds = %5
  tail call void @_ZN11QTextLayoutD1Ev(ptr noundef nonnull align 8 dereferenceable(8) %7) #22
  tail call void @_ZdlPv(ptr noundef nonnull %7) #23
  br label %10

10:                                               ; preds = %9, %5
  %11 = getelementptr inbounds i8, ptr %0, i64 240
  %12 = load ptr, ptr %11, align 8
  %.not.i.i.i = icmp eq ptr %12, null
  br i1 %.not.i.i.i, label %_ZN5QListIiED2Ev.exit, label %_ZN17QArrayDataPointerIiE5derefEv.exit.i.i

_ZN17QArrayDataPointerIiE5derefEv.exit.i.i:       ; preds = %10
  %13 = atomicrmw sub ptr %12, i32 1 seq_cst, align 4
  %.not.i.i = icmp eq i32 %13, 1
  br i1 %.not.i.i, label %14, label %_ZN5QListIiED2Ev.exit

14:                                               ; preds = %_ZN17QArrayDataPointerIiE5derefEv.exit.i.i
  %15 = load ptr, ptr %11, align 8
  tail call void @_ZN10QArrayData10deallocateEPS_xx(ptr noundef %15, i64 noundef 4, i64 noundef 8) #22
  br label %_ZN5QListIiED2Ev.exit

_ZN5QListIiED2Ev.exit:                            ; preds = %10, %_ZN17QArrayDataPointerIiE5derefEv.exit.i.i, %14
  %16 = getelementptr inbounds i8, ptr %0, i64 208
  %17 = load ptr, ptr %16, align 8
  %.not.i.i.i1 = icmp eq ptr %17, null
  br i1 %.not.i.i.i1, label %_ZN5QListI5QRectED2Ev.exit, label %_ZN17QArrayDataPointerI5QRectE5derefEv.exit.i.i

_ZN17QArrayDataPointerI5QRectE5derefEv.exit.i.i:  ; preds = %_ZN5QListIiED2Ev.exit
  %18 = atomicrmw sub ptr %17, i32 1 seq_cst, align 4
  %.not.i.i2 = icmp eq i32 %18, 1
  br i1 %.not.i.i2, label %19, label %_ZN5QListI5QRectED2Ev.exit

19:                                               ; preds = %_ZN17QArrayDataPointerI5QRectE5derefEv.exit.i.i
  %20 = load ptr, ptr %16, align 8
  tail call void @_ZN10QArrayData10deallocateEPS_xx(ptr noundef %20, i64 noundef 16, i64 noundef 8) #22
  br label %_ZN5QListI5QRectED2Ev.exit

_ZN5QListI5QRectED2Ev.exit:                       ; preds = %_ZN5QListIiED2Ev.exit, %_ZN17QArrayDataPointerI5QRectE5derefEv.exit.i.i, %19
  tail call void @_ZN5QMenuD1Ev(ptr noundef nonnull align 8 dereferenceable(40) %4) #22
  %21 = getelementptr inbounds i8, ptr %0, i64 56
  %22 = load ptr, ptr %21, align 8
  %.not.i.i.i3 = icmp eq ptr %22, null
  br i1 %.not.i.i.i3, label %_ZN10QByteArrayD2Ev.exit, label %_ZN17QArrayDataPointerIcE5derefEv.exit.i.i

_ZN17QArrayDataPointerIcE5derefEv.exit.i.i:       ; preds = %_ZN5QListI5QRectED2Ev.exit
  %23 = atomicrmw sub ptr %22, i32 1 seq_cst, align 4
  %.not.i.i4 = icmp eq i32 %23, 1
  br i1 %.not.i.i4, label %24, label %_ZN10QByteArrayD2Ev.exit

24:                                               ; preds = %_ZN17QArrayDataPointerIcE5derefEv.exit.i.i
  %25 = load ptr, ptr %21, align 8
  tail call void @_ZN10QArrayData10deallocateEPS_xx(ptr noundef %25, i64 noundef 1, i64 noundef 8) #22
  br label %_ZN10QByteArrayD2Ev.exit

_ZN10QByteArrayD2Ev.exit:                         ; preds = %_ZN5QListI5QRectED2Ev.exit, %_ZN17QArrayDataPointerIcE5derefEv.exit.i.i, %24
  tail call void @_ZN19QAbstractScrollAreaD2Ev(ptr noundef nonnull align 8 dereferenceable(40) %0) #22
  ret void

26:                                               ; preds = %1
  %27 = landingpad { ptr, i32 }
          catch ptr null
  %28 = extractvalue { ptr, i32 } %27, 0
  tail call void @__clang_call_terminate(ptr %28) #24
  unreachable
}